target datalayout = "e-m:e-p270:32:32-p271:32:32-p272:64:64-i64:64-i128:128-f80:128-n8:16:32:64-S128"
target triple = "x86_64-pc-linux-gnu"

%struct.sharedObjectsStruct = type { ptr, ptr, ptr, ptr, ptr, ptr, ptr, ptr, [4 x ptr], [4 x ptr], [4 x ptr], [4 x ptr], ptr, ptr, ptr, ptr, ptr, ptr, ptr, ptr, ptr, ptr, ptr, ptr, ptr, ptr, ptr, ptr, ptr, ptr, ptr, ptr, ptr, ptr, ptr, ptr, ptr, ptr, ptr, ptr, ptr, ptr, ptr, ptr, ptr, ptr, ptr, ptr, ptr, ptr, ptr, ptr, ptr, ptr, ptr, ptr, ptr, ptr, ptr, ptr, ptr, ptr, ptr, ptr, ptr, ptr, ptr, ptr, ptr, ptr, ptr, ptr, ptr, ptr, ptr, ptr, ptr, ptr, ptr, ptr, ptr, ptr, ptr, ptr, ptr, ptr, ptr, ptr, [10 x ptr], [10000 x ptr], [32 x ptr], [32 x ptr], [32 x ptr], [32 x ptr], ptr, ptr }
%struct.zskiplist = type { ptr, ptr, i64, i32 }
%struct.redisObject = type { i32, i32, ptr }
%struct.zset = type { ptr, ptr }
%struct.listpackEntry = type { ptr, i32, i64 }
%struct.client = type { i64, i64, ptr, i8, i8, i8, i8, i32, ptr, ptr, ptr, ptr, ptr, i64, i64, i32, ptr, i32, i32, ptr, i64, ptr, ptr, ptr, ptr, ptr, i32, i32, i64, ptr, i64, ptr, i64, i64, i64, i32, ptr, i64, i64, i32, i32, i32, i32, i64, i64, ptr, i64, i64, i64, i64, i64, i64, i64, i64, [41 x i8], i32, ptr, i32, i32, i64, %struct.multiState, %struct.blockingState, i64, ptr, ptr, ptr, ptr, ptr, ptr, ptr, ptr, ptr, ptr, ptr, ptr, ptr, ptr, i64, ptr, i64, i32, ptr, ptr, ptr, i64, %struct.listNode, i64, i64, i32, i64, ptr }
%struct.multiState = type { ptr, i32, i32, i32, i64, i32 }
%struct.blockingState = type { i32, i64, i32, ptr, i32, i32, i64, ptr, ptr, i64 }
%struct.listNode = type { ptr, ptr, ptr }

@.str.1 = private unnamed_addr constant [9 x i8] c"t_zset.c\00", align 1
@shared = external global %struct.sharedObjectsStruct, align 8
@.str.9 = private unnamed_addr constant [28 x i8] c"Unknown sorted set encoding\00", align 1
@.str.48 = private unnamed_addr constant [11 x i8] c"withscores\00", align 1
@.str.73 = private unnamed_addr constant [22 x i8] c"value is out of range\00", align 1

; Function Attrs: nounwind uwtable
define dso_local i32 @zzlLength(ptr noundef %0) #0 {
  %2 = alloca ptr, align 8
  store ptr %0, ptr %2, align 8, !tbaa !11
  %3 = load ptr, ptr %2, align 8, !tbaa !11
  %4 = call i64 @lpLength(ptr noundef %3)
  %5 = udiv i64 %4, 2
  %6 = trunc i64 %5 to i32
  ret i32 %6
}

; Function Attrs: nounwind uwtable
define dso_local void @zsetReplyFromListpackEntry(ptr noundef %0, ptr noundef %1) #0 {
  %3 = alloca ptr, align 8
  %4 = alloca ptr, align 8
  store ptr %0, ptr %3, align 8, !tbaa !150
  store ptr %1, ptr %4, align 8, !tbaa !45
  %5 = load ptr, ptr %4, align 8, !tbaa !45
  %6 = getelementptr inbounds nuw %struct.listpackEntry, ptr %5, i32 0, i32 0
  %7 = load ptr, ptr %6, align 8, !tbaa !146
  %8 = icmp ne ptr %7, null
  br i1 %8, label %9, label %18

9:                                                ; preds = %2
  %10 = load ptr, ptr %3, align 8, !tbaa !150
  %11 = load ptr, ptr %4, align 8, !tbaa !45
  %12 = getelementptr inbounds nuw %struct.listpackEntry, ptr %11, i32 0, i32 0
  %13 = load ptr, ptr %12, align 8, !tbaa !146
  %14 = load ptr, ptr %4, align 8, !tbaa !45
  %15 = getelementptr inbounds nuw %struct.listpackEntry, ptr %14, i32 0, i32 1
  %16 = load i32, ptr %15, align 8, !tbaa !148
  %17 = zext i32 %16 to i64
  call void @addReplyBulkCBuffer(ptr noundef %10, ptr noundef %13, i64 noundef %17)
  br label %23

18:                                               ; preds = %2
  %19 = load ptr, ptr %3, align 8, !tbaa !150
  %20 = load ptr, ptr %4, align 8, !tbaa !45
  %21 = getelementptr inbounds nuw %struct.listpackEntry, ptr %20, i32 0, i32 2
  %22 = load i64, ptr %21, align 8, !tbaa !149
  call void @addReplyBulkLongLong(ptr noundef %19, i64 noundef %22)
  br label %23

23:                                               ; preds = %18, %9
  ret void
}

; Function Attrs: nounwind uwtable
define dso_local i64 @zsetLength(ptr noundef %0) #0 {
  %2 = alloca ptr, align 8
  %3 = alloca i64, align 8
  store ptr %0, ptr %2, align 8, !tbaa !78
  call void @llvm.lifetime.start.p0(i64 8, ptr %3) #12
  store i64 0, ptr %3, align 8, !tbaa !31
  %4 = load ptr, ptr %2, align 8, !tbaa !78
  %5 = load i32, ptr %4, align 8
  %6 = lshr i32 %5, 4
  %7 = and i32 %6, 15
  %8 = icmp eq i32 %7, 11
  br i1 %8, label %9, label %15

9:                                                ; preds = %1
  %10 = load ptr, ptr %2, align 8, !tbaa !78
  %11 = getelementptr inbounds nuw %struct.redisObject, ptr %10, i32 0, i32 2
  %12 = load ptr, ptr %11, align 8, !tbaa !84
  %13 = call i32 @zzlLength(ptr noundef %12)
  %14 = zext i32 %13 to i64
  store i64 %14, ptr %3, align 8, !tbaa !31
  br label %31

15:                                               ; preds = %1
  %16 = load ptr, ptr %2, align 8, !tbaa !78
  %17 = load i32, ptr %16, align 8
  %18 = lshr i32 %17, 4
  %19 = and i32 %18, 15
  %20 = icmp eq i32 %19, 7
  br i1 %20, label %21, label %29

21:                                               ; preds = %15
  %22 = load ptr, ptr %2, align 8, !tbaa !78
  %23 = getelementptr inbounds nuw %struct.redisObject, ptr %22, i32 0, i32 2
  %24 = load ptr, ptr %23, align 8, !tbaa !84
  %25 = getelementptr inbounds nuw %struct.zset, ptr %24, i32 0, i32 1
  %26 = load ptr, ptr %25, align 8, !tbaa !112
  %27 = getelementptr inbounds nuw %struct.zskiplist, ptr %26, i32 0, i32 2
  %28 = load i64, ptr %27, align 8, !tbaa !21
  store i64 %28, ptr %3, align 8, !tbaa !31
  br label %30

29:                                               ; preds = %15
  call void (ptr, i32, ptr, ...) @_serverPanic(ptr noundef @.str.1, i32 noundef 1210, ptr noundef @.str.9)
  call void @abort() #14
  unreachable

30:                                               ; preds = %21
  br label %31

31:                                               ; preds = %30, %9
  %32 = load i64, ptr %3, align 8, !tbaa !31
  call void @llvm.lifetime.end.p0(i64 8, ptr %3) #12
  ret i64 %32
}

; Function Attrs: nounwind uwtable
define dso_local void @zrandmemberCommand(ptr noundef %0) #0 {
  %2 = alloca ptr, align 8
  %3 = alloca i64, align 8
  %4 = alloca i32, align 4
  %5 = alloca ptr, align 8
  %6 = alloca %struct.listpackEntry, align 8
  %7 = alloca i32, align 4
  store ptr %0, ptr %2, align 8, !tbaa !150
  call void @llvm.lifetime.start.p0(i64 8, ptr %3) #12
  call void @llvm.lifetime.start.p0(i64 4, ptr %4) #12
  store i32 0, ptr %4, align 4, !tbaa !5
  call void @llvm.lifetime.start.p0(i64 8, ptr %5) #12
  call void @llvm.lifetime.start.p0(i64 24, ptr %6) #12
  %8 = load ptr, ptr %2, align 8, !tbaa !150
  %9 = getelementptr inbounds nuw %struct.client, ptr %8, i32 0, i32 15
  %10 = load i32, ptr %9, align 8, !tbaa !160
  %11 = icmp sge i32 %10, 3
  br i1 %11, label %12, label %64

12:                                               ; preds = %1
  %13 = load ptr, ptr %2, align 8, !tbaa !150
  %14 = load ptr, ptr %2, align 8, !tbaa !150
  %15 = getelementptr inbounds nuw %struct.client, ptr %14, i32 0, i32 16
  %16 = load ptr, ptr %15, align 8, !tbaa !151
  %17 = getelementptr inbounds ptr, ptr %16, i64 2
  %18 = load ptr, ptr %17, align 8, !tbaa !78
  %19 = call i32 @getRangeLongFromObjectOrReply(ptr noundef %13, ptr noundef %18, i64 noundef -9223372036854775807, i64 noundef 9223372036854775807, ptr noundef %3, ptr noundef null)
  %20 = icmp ne i32 %19, 0
  br i1 %20, label %21, label %22

21:                                               ; preds = %12
  store i32 1, ptr %7, align 4
  br label %90

22:                                               ; preds = %12
  %23 = load ptr, ptr %2, align 8, !tbaa !150
  %24 = getelementptr inbounds nuw %struct.client, ptr %23, i32 0, i32 15
  %25 = load i32, ptr %24, align 8, !tbaa !160
  %26 = icmp sgt i32 %25, 4
  br i1 %26, label %42, label %27

27:                                               ; preds = %22
  %28 = load ptr, ptr %2, align 8, !tbaa !150
  %29 = getelementptr inbounds nuw %struct.client, ptr %28, i32 0, i32 15
  %30 = load i32, ptr %29, align 8, !tbaa !160
  %31 = icmp eq i32 %30, 4
  br i1 %31, label %32, label %45

32:                                               ; preds = %27
  %33 = load ptr, ptr %2, align 8, !tbaa !150
  %34 = getelementptr inbounds nuw %struct.client, ptr %33, i32 0, i32 16
  %35 = load ptr, ptr %34, align 8, !tbaa !151
  %36 = getelementptr inbounds ptr, ptr %35, i64 3
  %37 = load ptr, ptr %36, align 8, !tbaa !78
  %38 = getelementptr inbounds nuw %struct.redisObject, ptr %37, i32 0, i32 2
  %39 = load ptr, ptr %38, align 8, !tbaa !84
  %40 = call i32 @strcasecmp(ptr noundef %39, ptr noundef @.str.48) #15
  %41 = icmp ne i32 %40, 0
  br i1 %41, label %42, label %45

42:                                               ; preds = %32, %22
  %43 = load ptr, ptr %2, align 8, !tbaa !150
  %44 = load ptr, ptr getelementptr inbounds nuw (%struct.sharedObjectsStruct, ptr @shared, i32 0, i32 15), align 8, !tbaa !162
  call void @addReplyErrorObject(ptr noundef %43, ptr noundef %44)
  store i32 1, ptr %7, align 4
  br label %90

45:                                               ; preds = %32, %27
  %46 = load ptr, ptr %2, align 8, !tbaa !150
  %47 = getelementptr inbounds nuw %struct.client, ptr %46, i32 0, i32 15
  %48 = load i32, ptr %47, align 8, !tbaa !160
  %49 = icmp eq i32 %48, 4
  br i1 %49, label %50, label %59

50:                                               ; preds = %45
  store i32 1, ptr %4, align 4, !tbaa !5
  %51 = load i64, ptr %3, align 8, !tbaa !31
  %52 = icmp slt i64 %51, -4611686018427387903
  br i1 %52, label %56, label %53

53:                                               ; preds = %50
  %54 = load i64, ptr %3, align 8, !tbaa !31
  %55 = icmp sgt i64 %54, 4611686018427387903
  br i1 %55, label %56, label %58

56:                                               ; preds = %53, %50
  %57 = load ptr, ptr %2, align 8, !tbaa !150
  call void @addReplyError(ptr noundef %57, ptr noundef @.str.73)
  store i32 1, ptr %7, align 4
  br label %90

58:                                               ; preds = %53
  br label %59

59:                                               ; preds = %58, %45
  br label %60

60:                                               ; preds = %59
  %61 = load ptr, ptr %2, align 8, !tbaa !150
  %62 = load i64, ptr %3, align 8, !tbaa !31
  %63 = load i32, ptr %4, align 4, !tbaa !5
  call void @zrandmemberWithCountCommand(ptr noundef %61, i64 noundef %62, i32 noundef %63)
  store i32 1, ptr %7, align 4
  br label %90

64:                                               ; preds = %1
  %65 = load ptr, ptr %2, align 8, !tbaa !150
  %66 = load ptr, ptr %2, align 8, !tbaa !150
  %67 = getelementptr inbounds nuw %struct.client, ptr %66, i32 0, i32 16
  %68 = load ptr, ptr %67, align 8, !tbaa !151
  %69 = getelementptr inbounds ptr, ptr %68, i64 1
  %70 = load ptr, ptr %69, align 8, !tbaa !78
  %71 = load ptr, ptr %2, align 8, !tbaa !150
  %72 = getelementptr inbounds nuw %struct.client, ptr %71, i32 0, i32 7
  %73 = load i32, ptr %72, align 4, !tbaa !205
  %74 = sext i32 %73 to i64
  %75 = getelementptr inbounds [4 x ptr], ptr getelementptr inbounds nuw (%struct.sharedObjectsStruct, ptr @shared, i32 0, i32 8), i64 0, i64 %74
  %76 = load ptr, ptr %75, align 8, !tbaa !78
  %77 = call ptr @lookupKeyReadOrReply(ptr noundef %65, ptr noundef %70, ptr noundef %76)
  store ptr %77, ptr %5, align 8, !tbaa !78
  %78 = icmp eq ptr %77, null
  br i1 %78, label %84, label %79

79:                                               ; preds = %64
  %80 = load ptr, ptr %2, align 8, !tbaa !150
  %81 = load ptr, ptr %5, align 8, !tbaa !78
  %82 = call i32 @checkType(ptr noundef %80, ptr noundef %81, i32 noundef 3)
  %83 = icmp ne i32 %82, 0
  br i1 %83, label %84, label %85

84:                                               ; preds = %79, %64
  store i32 1, ptr %7, align 4
  br label %90

85:                                               ; preds = %79
  %86 = load ptr, ptr %5, align 8, !tbaa !78
  %87 = load ptr, ptr %5, align 8, !tbaa !78
  %88 = call i64 @zsetLength(ptr noundef %87)
  call void @zsetTypeRandomElement(ptr noundef %86, i64 noundef %88, ptr noundef %6, ptr noundef null)
  %89 = load ptr, ptr %2, align 8, !tbaa !150
  call void @zsetReplyFromListpackEntry(ptr noundef %89, ptr noundef %6)
  store i32 0, ptr %7, align 4
  br label %90

90:                                               ; preds = %85, %84, %60, %56, %42, %21
  call void @llvm.lifetime.end.p0(i64 24, ptr %6) #12
  call void @llvm.lifetime.end.p0(i64 8, ptr %5) #12
  call void @llvm.lifetime.end.p0(i64 4, ptr %4) #12
  call void @llvm.lifetime.end.p0(i64 8, ptr %3) #12
  %91 = load i32, ptr %7, align 4
  switch i32 %91, label %93 [
    i32 0, label %92
    i32 1, label %92
  ]

92:                                               ; preds = %90, %90
  ret void

93:                                               ; preds = %90
  unreachable
}