; Function Attrs: nounwind uwtable
define dso_local void @zrandmemberCommand(ptr noundef %0) local_unnamed_addr #0 {
  %2 = alloca i64, align 8
  %3 = alloca %struct.listpackEntry, align 8
  call void @llvm.lifetime.start.p0(i64 8, ptr nonnull %2) #18
  call void @llvm.lifetime.start.p0(i64 24, ptr nonnull %3) #18
  %4 = getelementptr inbounds nuw i8, ptr %0, i64 88
  %5 = load i32, ptr %4, align 8, !tbaa !147
  %6 = icmp sgt i32 %5, 2
  %7 = getelementptr inbounds nuw i8, ptr %0, i64 96
  %8 = load ptr, ptr %7, align 8, !tbaa !136
  br i1 %6, label %9, label %33

9:                                                ; preds = %1
  %10 = getelementptr inbounds nuw i8, ptr %8, i64 16
  %11 = load ptr, ptr %10, align 8, !tbaa !146
  %12 = call i32 @getRangeLongFromObjectOrReply(ptr noundef nonnull %0, ptr noundef %11, i64 noundef -9223372036854775807, i64 noundef 9223372036854775807, ptr noundef nonnull %2, ptr noundef null) #18
  %.not21 = icmp eq i32 %12, 0
  br i1 %.not21, label %13, label %zsetReplyFromListpackEntry.exit

13:                                               ; preds = %9
  %14 = load i32, ptr %4, align 8, !tbaa !147
  %15 = icmp sgt i32 %14, 4
  br i1 %15, label %25, label %16

16:                                               ; preds = %13
  %17 = icmp eq i32 %14, 4
  br i1 %17, label %18, label %._crit_edge

._crit_edge:                                      ; preds = %16
  %.pre = load i64, ptr %2, align 8, !tbaa !26
  br label %31

18:                                               ; preds = %16
  %19 = load ptr, ptr %7, align 8, !tbaa !136
  %20 = getelementptr inbounds nuw i8, ptr %19, i64 24
  %21 = load ptr, ptr %20, align 8, !tbaa !146
  %22 = getelementptr inbounds nuw i8, ptr %21, i64 8
  %23 = load ptr, ptr %22, align 8, !tbaa !75
  %24 = call i32 @strcasecmp(ptr noundef %23, ptr noundef nonnull @.str.48) #20
  %.not22 = icmp eq i32 %24, 0
  br i1 %.not22, label %27, label %25

25:                                               ; preds = %18, %13
  %26 = load ptr, ptr getelementptr inbounds nuw (i8, ptr @shared, i64 216), align 8, !tbaa !148
  call void @addReplyErrorObject(ptr noundef nonnull %0, ptr noundef %26) #18
  br label %zsetReplyFromListpackEntry.exit

27:                                               ; preds = %18
  %28 = load i64, ptr %2, align 8, !tbaa !26
  %29 = add i64 %28, -4611686018427387904
  %or.cond = icmp ult i64 %29, -9223372036854775807
  br i1 %or.cond, label %30, label %31

30:                                               ; preds = %27
  call void @addReplyError(ptr noundef nonnull %0, ptr noundef nonnull @.str.73) #18
  br label %zsetReplyFromListpackEntry.exit

31:                                               ; preds = %._crit_edge, %27
  %32 = phi i64 [ %28, %27 ], [ %.pre, %._crit_edge ]
  %.0 = phi i32 [ 1, %27 ], [ 0, %._crit_edge ]
  call void @zrandmemberWithCountCommand(ptr noundef nonnull %0, i64 noundef %32, i32 noundef %.0)
  br label %zsetReplyFromListpackEntry.exit

33:                                               ; preds = %1
  %34 = getelementptr inbounds nuw i8, ptr %8, i64 8
  %35 = load ptr, ptr %34, align 8, !tbaa !146
  %36 = getelementptr inbounds nuw i8, ptr %0, i64 28
  %37 = load i32, ptr %36, align 4, !tbaa !185
  %38 = sext i32 %37 to i64
  %39 = getelementptr inbounds [4 x ptr], ptr getelementptr inbounds nuw (i8, ptr @shared, i64 64), i64 0, i64 %38
  %40 = load ptr, ptr %39, align 8, !tbaa !146
  %41 = tail call ptr @lookupKeyReadOrReply(ptr noundef nonnull %0, ptr noundef %35, ptr noundef %40) #18
  %42 = icmp eq ptr %41, null
  br i1 %42, label %zsetReplyFromListpackEntry.exit, label %43

43:                                               ; preds = %33
  %44 = tail call i32 @checkType(ptr noundef nonnull %0, ptr noundef nonnull %41, i32 noundef 3) #18
  %.not = icmp eq i32 %44, 0
  br i1 %.not, label %45, label %zsetReplyFromListpackEntry.exit

45:                                               ; preds = %43
  %46 = load i32, ptr %41, align 8
  %47 = lshr i32 %46, 4
  %48 = and i32 %47, 15
  switch i32 %48, label %62 [
    i32 11, label %49
    i32 7, label %55
  ]

49:                                               ; preds = %45
  %50 = getelementptr inbounds nuw i8, ptr %41, i64 8
  %51 = load ptr, ptr %50, align 8, !tbaa !75
  %52 = tail call i64 @lpLength(ptr noundef %51) #18
  %53 = lshr i64 %52, 1
  %54 = and i64 %53, 4294967295
  br label %zsetLength.exit

55:                                               ; preds = %45
  %56 = getelementptr inbounds nuw i8, ptr %41, i64 8
  %57 = load ptr, ptr %56, align 8, !tbaa !75
  %58 = getelementptr inbounds nuw i8, ptr %57, i64 8
  %59 = load ptr, ptr %58, align 8, !tbaa !97
  %60 = getelementptr inbounds nuw i8, ptr %59, i64 16
  %61 = load i64, ptr %60, align 8, !tbaa !17
  br label %zsetLength.exit

62:                                               ; preds = %45
  tail call void (ptr, i32, ptr, ...) @_serverPanic(ptr noundef nonnull @.str.1, i32 noundef 1210, ptr noundef nonnull @.str.9) #18
  tail call void @abort() #19
  unreachable

zsetLength.exit:                                  ; preds = %49, %55
  %.0.i = phi i64 [ %54, %49 ], [ %61, %55 ]
  call void @zsetTypeRandomElement(ptr noundef nonnull %41, i64 noundef %.0.i, ptr noundef nonnull %3, ptr noundef null)
  %63 = load ptr, ptr %3, align 8, !tbaa !132
  %.not.i = icmp eq ptr %63, null
  br i1 %.not.i, label %68, label %64

64:                                               ; preds = %zsetLength.exit
  %65 = getelementptr inbounds nuw i8, ptr %3, i64 8
  %66 = load i32, ptr %65, align 8, !tbaa !134
  %67 = zext i32 %66 to i64
  call void @addReplyBulkCBuffer(ptr noundef nonnull %0, ptr noundef nonnull %63, i64 noundef %67) #18
  br label %zsetReplyFromListpackEntry.exit

68:                                               ; preds = %zsetLength.exit
  %69 = getelementptr inbounds nuw i8, ptr %3, i64 16
  %70 = load i64, ptr %69, align 8, !tbaa !135
  call void @addReplyBulkLongLong(ptr noundef nonnull %0, i64 noundef %70) #18
  br label %zsetReplyFromListpackEntry.exit

zsetReplyFromListpackEntry.exit:                  ; preds = %68, %64, %33, %43, %9, %31, %30, %25
  call void @llvm.lifetime.end.p0(i64 24, ptr nonnull %3) #18
  call void @llvm.lifetime.end.p0(i64 8, ptr nonnull %2) #18
  ret void
}